target datalayout = "e-m:e-p270:32:32-p271:32:32-p272:64:64-i64:64-i128:128-f80:128-n8:16:32:64-S128"
target triple = "x86_64-pc-linux-gnu"

%struct.llama_sampler_i = type { ptr, ptr, ptr, ptr, ptr, ptr }
%struct.llama_sampler = type { ptr, ptr }

@.str.1 = private unnamed_addr constant [120 x i8] c"generated/home/dtcxzyw/WorkSpace/Projects/compilers/llvm-opt-benchmark/bench/llama.cpp/llama.cpp/src/llama-sampling.cpp\00", align 1
@.str.2 = private unnamed_addr constant [23 x i8] c"GGML_ASSERT(%s) failed\00", align 1
@.str.3 = private unnamed_addr constant [19 x i8] c"smpl->iface->apply\00", align 1

; Function Attrs: mustprogress uwtable
define void @llama_sampler_apply(ptr noundef %0, ptr noundef %1) #0 {
  %3 = alloca ptr, align 8
  %4 = alloca ptr, align 8
  store ptr %0, ptr %3, align 8, !tbaa !12
  store ptr %1, ptr %4, align 8, !tbaa !19
  %5 = load ptr, ptr %3, align 8, !tbaa !12
  %6 = getelementptr inbounds nuw %struct.llama_sampler, ptr %5, i32 0, i32 0
  %7 = load ptr, ptr %6, align 8, !tbaa !9
  %8 = getelementptr inbounds nuw %struct.llama_sampler_i, ptr %7, i32 0, i32 2
  %9 = load ptr, ptr %8, align 8, !tbaa !21
  %10 = icmp ne ptr %9, null
  br i1 %10, label %12, label %11

11:                                               ; preds = %2
  call void (ptr, i32, ptr, ...) @ggml_abort(ptr noundef @.str.1, i32 noundef 341, ptr noundef @.str.2, ptr noundef @.str.3) #20
  unreachable

12:                                               ; preds = %2
  %13 = load ptr, ptr %3, align 8, !tbaa !12
  %14 = getelementptr inbounds nuw %struct.llama_sampler, ptr %13, i32 0, i32 0
  %15 = load ptr, ptr %14, align 8, !tbaa !9
  %16 = getelementptr inbounds nuw %struct.llama_sampler_i, ptr %15, i32 0, i32 2
  %17 = load ptr, ptr %16, align 8, !tbaa !21
  %18 = load ptr, ptr %3, align 8, !tbaa !12
  %19 = load ptr, ptr %4, align 8, !tbaa !19
  call void %17(ptr noundef %18, ptr noundef %19)
  ret void
}