; Function Attrs: mustprogress uwtable
define void @llama_sampler_apply(ptr noundef %0, ptr noundef %1) local_unnamed_addr #0 {
  %3 = load ptr, ptr %0, align 8, !tbaa !3
  %4 = getelementptr inbounds nuw i8, ptr %3, i64 16
  %5 = load ptr, ptr %4, align 8, !tbaa !13
  %.not = icmp eq ptr %5, null
  br i1 %.not, label %6, label %7

6:                                                ; preds = %2
  tail call void (ptr, i32, ptr, ...) @ggml_abort(ptr noundef nonnull @.str.1, i32 noundef 341, ptr noundef nonnull @.str.2, ptr noundef nonnull @.str.3) #31
  unreachable

7:                                                ; preds = %2
  tail call void %5(ptr noundef nonnull %0, ptr noundef %1)
  ret void
}